(dp0
I0
I0
sI1
I1
sI8
I2
sI11
I3
sI12
I4
sI13
I5
sI15
I6
sI18
I7
sI20
I8
sI23
I9
sI26
I10
sI27
I11
sI31
I12
sI33
I13
sI35
I14
sI37
I15
sI38
I16
sI42
I17
sI43
I18
sI44
I19
sI49
I20
sI50
I21
sI52
I22
sI54
I23
sI57
I24
sI59
I25
sI61
I26
sI63
I27
sI64
I28
sI65
I29
sI67
I30
sI70
I31
sI71
I32
sI72
I33
sI73
I34
sI74
I35
sI79
I36
sI80
I37
sI81
I38
sI86
I39
sI88
I40
sI89
I41
sI90
I42
sI92
I43
sI93
I44
sI94
I45
sI95
I46
sI97
I47
sI100
I48
sI105
I49
sI106
I50
sI108
I51
sI110
I52
sI114
I53
sI118
I54
sI120
I55
sI123
I56
sI124
I57
sI127
I58
sI129
I59
sI130
I60
sI133
I61
sI138
I62
sI140
I63
sI141
I64
sI143
I65
sI147
I66
sI149
I67
sI150
I68
sI151
I69
sI153
I70
sI156
I71
sI158
I72
sI160
I73
sI163
I74
sI164
I75
sI168
I76
sI171
I77
sI176
I78
sI177
I79
sI178
I80
sI179
I81
sI180
I82
sI181
I83
sI182
I84
sI186
I85
sI188
I86
sI189
I87
sI190
I88
sI191
I89
sI193
I90
sI194
I91
sI197
I92
sI198
I93
sI199
I94
sI204
I95
sI205
I96
sI206
I97
sI210
I98
sI213
I99
sI214
I100
sI216
I101
sI217
I102
sI222
I103
sI226
I104
sI229
I105
sI231
I106
sI232
I107
sI233
I108
sI238
I109
sI240
I110
sI241
I111
sI246
I112
sI247
I113
sI248
I114
sI249
I115
sI250
I116
sI256
I117
sI261
I118
sI264
I119
sI266
I120
sI268
I121
sI269
I122
sI270
I123
sI272
I124
sI273
I125
sI274
I126
sI275
I127
sI277
I128
sI280
I129
sI281
I130
sI282
I131
sI288
I132
sI290
I133
sI291
I134
sI292
I135
sI295
I136
sI297
I137
sI298
I138
sI299
I139
sI300
I140
sI301
I141
sI306
I142
sI307
I143
sI308
I144
sI311
I145
sI312
I146
sI314
I147
sI315
I148
sI319
I149
s.